(inode
Folder
p0
(dp1
S'name'
p2
S'root'
p3
sS'parent'
p4
NsS'clickCount'
p5
I0
sS'depth'
p6
I0
sS'date'
p7
cdatetime
datetime
p8
(S'\x07\xdd\x04\x12\x02\x0c\x0c\x06FL'
p9
tp10
Rp11
sS'children'
p12
(lp13
(inode
Bookmark
p14
(dp15
g2
S'Google'
p16
sg4
g0
sg5
I0
sS'url'
p17
S'http://www.google.com'
p18
sg6
I1
sg7
g8
(S'\x07\xdd\x04\x12\x02\x0c\x0c\x06F\x9e'
p19
tp20
Rp21
sba(inode
Bookmark
p22
(dp23
g2
S'Yahoo'
p24
sg4
g0
sg5
I0
sg17
S'http://www.yahoo.com'
p25
sg6
I1
sg7
g21
sba(inode
Folder
p26
(dp27
g2
S'School'
p28
sg4
g0
sg5
I0
sg6
I1
sg7
g11
sg12
(lp29
(inode
Bookmark
p30
(dp31
g2
S'CS465'
p32
sg4
g26
sg5
I0
sg17
S'https://wiki.engr.illinois.edu/display/cs465sp13/Home'
p33
sg6
I2
sg7
g21
sba(inode
Bookmark
p34
(dp35
g2
S'Piazza'
p36
sg4
g26
sg5
I0
sg17
S'http://www.piazza.com'
p37
sg6
I2
sg7
g21
sbasba(inode
Folder
p38
(dp39
g2
S'Fun'
p40
sg4
g0
sg5
I0
sg6
I1
sg7
g11
sg12
(lp41
(inode
Folder
p42
(dp43
g2
S'News'
p44
sg4
g38
sg5
I0
sg6
I2
sg7
g11
sg12
(lp45
(inode
Bookmark
p46
(dp47
g2
S'HN'
p48
sg4
g42
sg5
I0
sg17
S'http://news.ycombinator.com'
p49
sg6
I3
sg7
g21
sba(inode
Bookmark
p50
(dp51
g2
S'NYTimes'
p52
sg4
g42
sg5
I0
sg17
S'http://www.nytimes.com'
p53
sg6
I3
sg7
g21
sbasba(inode
Bookmark
p54
(dp55
g2
S'Reddit'
p56
sg4
g38
sg5
I0
sg17
S'http://www.reddit.com'
p57
sg6
I2
sg7
g21
sbasbasb.